target datalayout = "e-m:e-p270:32:32-p271:32:32-p272:64:64-i64:64-i128:128-f80:128-n8:16:32:64-S128"
target triple = "x86_64-pc-linux-gnu"

%struct._address = type { i32, i32, ptr, ptr }
%struct._packet_info = type { ptr, ptr, i32, i32, %struct.nstime_t, %struct.nstime_t, %struct.nstime_t, i8, ptr, ptr, ptr, ptr, %struct._address, %struct._address, %struct._address, %struct._address, %struct._address, %struct._address, i32, ptr, i8, [3 x i8], %struct.anon, i32, i32, i32, i32, ptr, i8, ptr, ptr, i16, i16, i32, i32, i16, i32, i32, ptr, ptr, ptr, i8, i8, i16, i16, i16, i32, i16, i16, ptr, ptr, ptr, ptr, ptr, i32, i32 }
%struct.nstime_t = type { i64, i32 }
%struct.anon = type { i8, [3 x i8] }
%struct._frame_data = type <{ i32, i32, i32, i32, i32, [4 x i8], i64, ptr, ptr, ptr, i8, i16, [5 x i8], %struct.nstime_t, %struct.nstime_t, i32, i32 }>
%struct._msrp_conversation_info = type { i8, [8 x i8], i32 }

@msrp_handle = internal global ptr null, align 8
@proto_msrp = internal global i32 0, align 4

; Function Attrs: inlinehint nounwind null_pointer_is_valid sspstrong uwtable
define internal void @clear_address(ptr noundef %0) #2 {
  %2 = alloca ptr, align 8
  store ptr %0, ptr %2, align 8
  %3 = load ptr, ptr %2, align 8
  %4 = getelementptr inbounds nuw %struct._address, ptr %3, i32 0, i32 0
  store i32 0, ptr %4, align 8
  %5 = load ptr, ptr %2, align 8
  %6 = getelementptr inbounds nuw %struct._address, ptr %5, i32 0, i32 1
  store i32 0, ptr %6, align 4
  %7 = load ptr, ptr %2, align 8
  %8 = getelementptr inbounds nuw %struct._address, ptr %7, i32 0, i32 2
  store ptr null, ptr %8, align 8
  %9 = load ptr, ptr %2, align 8
  %10 = getelementptr inbounds nuw %struct._address, ptr %9, i32 0, i32 3
  store ptr null, ptr %10, align 8
  ret void
}

; Function Attrs: null_pointer_is_valid sspstrong uwtable
define hidden void @msrp_add_address(ptr noundef %0, ptr noundef %1, i32 noundef %2, ptr noundef %3, i32 noundef %4) #0 {
  %6 = alloca ptr, align 8
  %7 = alloca ptr, align 8
  %8 = alloca i32, align 4
  %9 = alloca ptr, align 8
  %10 = alloca i32, align 4
  %11 = alloca %struct._address, align 8
  %12 = alloca ptr, align 8
  %13 = alloca ptr, align 8
  %14 = alloca i32, align 4
  store ptr %0, ptr %6, align 8
  store ptr %1, ptr %7, align 8
  store i32 %2, ptr %8, align 4
  store ptr %3, ptr %9, align 8
  store i32 %4, ptr %10, align 4
  call void @llvm.lifetime.start.p0(i64 24, ptr %11) #8
  call void @llvm.lifetime.start.p0(i64 8, ptr %12) #8
  call void @llvm.lifetime.start.p0(i64 8, ptr %13) #8
  store ptr null, ptr %13, align 8
  %15 = load ptr, ptr %6, align 8
  %16 = getelementptr inbounds nuw %struct._packet_info, ptr %15, i32 0, i32 8
  %17 = load ptr, ptr %16, align 8
  %18 = getelementptr inbounds nuw %struct._frame_data, ptr %17, i32 0, i32 11
  %19 = load i16, ptr %18, align 1
  %20 = lshr i16 %19, 3
  %21 = and i16 %20, 1
  %22 = zext i16 %21 to i32
  %23 = icmp ne i32 %22, 0
  br i1 %23, label %24, label %25

24:                                               ; preds = %5
  store i32 1, ptr %14, align 4
  br label %66

25:                                               ; preds = %5
  call void @clear_address(ptr noundef %11)
  %26 = load ptr, ptr %6, align 8
  %27 = getelementptr inbounds nuw %struct._packet_info, ptr %26, i32 0, i32 3
  %28 = load i32, ptr %27, align 4
  %29 = load ptr, ptr %7, align 8
  %30 = load i32, ptr %8, align 4
  %31 = call ptr @find_conversation(i32 noundef %28, ptr noundef %29, ptr noundef %11, i32 noundef 2, i32 noundef %30, i32 noundef 0, i32 noundef 196608)
  store ptr %31, ptr %12, align 8
  %32 = load ptr, ptr %12, align 8
  %33 = icmp ne ptr %32, null
  br i1 %33, label %41, label %34

34:                                               ; preds = %25
  %35 = load ptr, ptr %6, align 8
  %36 = getelementptr inbounds nuw %struct._packet_info, ptr %35, i32 0, i32 3
  %37 = load i32, ptr %36, align 4
  %38 = load ptr, ptr %7, align 8
  %39 = load i32, ptr %8, align 4
  %40 = call ptr @conversation_new(i32 noundef %37, ptr noundef %38, ptr noundef %11, i32 noundef 2, i32 noundef %39, i32 noundef 0, i32 noundef 3)
  store ptr %40, ptr %12, align 8
  br label %41

41:                                               ; preds = %34, %25
  %42 = load ptr, ptr %12, align 8
  %43 = load ptr, ptr @msrp_handle, align 8
  call void @conversation_set_dissector(ptr noundef %42, ptr noundef %43)
  %44 = load ptr, ptr %12, align 8
  %45 = load i32, ptr @proto_msrp, align 4
  %46 = call ptr @conversation_get_proto_data(ptr noundef %44, i32 noundef %45)
  store ptr %46, ptr %13, align 8
  %47 = load ptr, ptr %13, align 8
  %48 = icmp ne ptr %47, null
  br i1 %48, label %55, label %49

49:                                               ; preds = %41
  %50 = call ptr @wmem_file_scope()
  %51 = call noalias ptr @wmem_alloc0(ptr noundef %50, i64 noundef 16) #9
  store ptr %51, ptr %13, align 8
  %52 = load ptr, ptr %12, align 8
  %53 = load i32, ptr @proto_msrp, align 4
  %54 = load ptr, ptr %13, align 8
  call void @conversation_add_proto_data(ptr noundef %52, i32 noundef %53, ptr noundef %54)
  br label %55

55:                                               ; preds = %49, %41
  %56 = load ptr, ptr %13, align 8
  %57 = getelementptr inbounds nuw %struct._msrp_conversation_info, ptr %56, i32 0, i32 0
  store i8 1, ptr %57, align 4
  %58 = load ptr, ptr %13, align 8
  %59 = getelementptr inbounds nuw %struct._msrp_conversation_info, ptr %58, i32 0, i32 1
  %60 = getelementptr inbounds [8 x i8], ptr %59, i64 0, i64 0
  %61 = load ptr, ptr %9, align 8
  %62 = call i64 @g_strlcpy(ptr noundef %60, ptr noundef %61, i64 noundef 7)
  %63 = load i32, ptr %10, align 4
  %64 = load ptr, ptr %13, align 8
  %65 = getelementptr inbounds nuw %struct._msrp_conversation_info, ptr %64, i32 0, i32 2
  store i32 %63, ptr %65, align 4
  store i32 0, ptr %14, align 4
  br label %66

66:                                               ; preds = %55, %24
  call void @llvm.lifetime.end.p0(i64 8, ptr %13) #8
  call void @llvm.lifetime.end.p0(i64 8, ptr %12) #8
  call void @llvm.lifetime.end.p0(i64 24, ptr %11) #8
  %67 = load i32, ptr %14, align 4
  switch i32 %67, label %69 [
    i32 0, label %68
    i32 1, label %68
  ]

68:                                               ; preds = %66, %66
  ret void

69:                                               ; preds = %66
  unreachable
}