; Function Attrs: null_pointer_is_valid sspstrong uwtable
define hidden void @msrp_add_address(ptr noundef readonly captures(none) %0, ptr noundef %1, i32 noundef %2, ptr noundef %3, i32 noundef %4) local_unnamed_addr #0 {
  %6 = alloca %struct._address, align 8
  call void @llvm.lifetime.start.p0(i64 24, ptr nonnull %6) #8
  %7 = getelementptr inbounds nuw i8, ptr %0, i64 80
  %8 = load ptr, ptr %7, align 8
  %9 = getelementptr inbounds nuw i8, ptr %8, i64 57
  %10 = load i16, ptr %9, align 1
  %11 = and i16 %10, 8
  %.not = icmp eq i16 %11, 0
  br i1 %.not, label %12, label %31

12:                                               ; preds = %5
  call void @llvm.memset.p0.i64(ptr noundef nonnull align 8 dereferenceable(24) %6, i8 0, i64 24, i1 false)
  %13 = getelementptr inbounds nuw i8, ptr %0, i64 20
  %14 = load i32, ptr %13, align 4
  %15 = call ptr @find_conversation(i32 noundef %14, ptr noundef %1, ptr noundef nonnull %6, i32 noundef 2, i32 noundef %2, i32 noundef 0, i32 noundef 196608)
  %.not20 = icmp eq ptr %15, null
  br i1 %.not20, label %16, label %19

16:                                               ; preds = %12
  %17 = load i32, ptr %13, align 4
  %18 = call ptr @conversation_new(i32 noundef %17, ptr noundef %1, ptr noundef nonnull %6, i32 noundef 2, i32 noundef %2, i32 noundef 0, i32 noundef 3)
  br label %19

19:                                               ; preds = %16, %12
  %.017 = phi ptr [ %15, %12 ], [ %18, %16 ]
  %20 = load ptr, ptr @msrp_handle, align 8
  call void @conversation_set_dissector(ptr noundef %.017, ptr noundef %20)
  %21 = load i32, ptr @proto_msrp, align 4
  %22 = call ptr @conversation_get_proto_data(ptr noundef %.017, i32 noundef %21)
  %.not21 = icmp eq ptr %22, null
  br i1 %.not21, label %23, label %27

23:                                               ; preds = %19
  %24 = call ptr @wmem_file_scope()
  %25 = call noalias dereferenceable_or_null(16) ptr @wmem_alloc0(ptr noundef %24, i64 noundef 16) #9
  %26 = load i32, ptr @proto_msrp, align 4
  call void @conversation_add_proto_data(ptr noundef %.017, i32 noundef %26, ptr noundef %25)
  br label %27

27:                                               ; preds = %23, %19
  %.0 = phi ptr [ %22, %19 ], [ %25, %23 ]
  store i8 1, ptr %.0, align 4
  %28 = getelementptr inbounds nuw i8, ptr %.0, i64 1
  %29 = call i64 @g_strlcpy(ptr noundef nonnull %28, ptr noundef %3, i64 noundef 7)
  %30 = getelementptr inbounds nuw i8, ptr %.0, i64 12
  store i32 %4, ptr %30, align 4
  br label %31

31:                                               ; preds = %5, %27
  call void @llvm.lifetime.end.p0(i64 24, ptr nonnull %6) #8
  ret void
}